target datalayout = "e-m:e-p270:32:32-p271:32:32-p272:64:64-i64:64-i128:128-f80:128-n8:16:32:64-S128"
target triple = "x86_64-pc-linux-gnu"

%"class.llvm::SmallVectorBase" = type { ptr, i32, i32 }
%"struct.llvm::MCSchedModel" = type { i32, i32, i32, i32, i32, i32, i8, i8, i8, i32, ptr, ptr, i32, i32, ptr, ptr }
%"class.(anonymous namespace)::X86CmovConverterPass" = type { %"class.llvm::MachineFunctionPass", ptr, ptr, ptr, ptr, %"class.llvm::TargetSchedModel" }
%"class.llvm::MachineFunctionPass" = type { %"class.llvm::FunctionPass.base", %"class.llvm::MachineFunctionProperties", %"class.llvm::MachineFunctionProperties", %"class.llvm::MachineFunctionProperties" }
%"class.llvm::FunctionPass.base" = type { %"class.llvm::Pass.base" }
%"class.llvm::Pass.base" = type <{ ptr, ptr, ptr, i32 }>
%"class.llvm::MachineFunctionProperties" = type { %"class.std::bitset" }
%"class.std::bitset" = type { %"struct.std::_Base_bitset" }
%"struct.std::_Base_bitset" = type { i64 }
%"class.llvm::TargetSchedModel" = type { %"struct.llvm::MCSchedModel", %"class.llvm::InstrItineraryData", ptr, ptr, %"class.llvm::SmallVector.19", i32, i32 }
%"class.llvm::InstrItineraryData" = type { %"struct.llvm::MCSchedModel", ptr, ptr, ptr, ptr }
%"class.llvm::SmallVector.19" = type { %"class.llvm::SmallVectorImpl.20", %"struct.llvm::SmallVectorStorage.23" }
%"class.llvm::SmallVectorImpl.20" = type { %"class.llvm::SmallVectorTemplateBase.21" }
%"class.llvm::SmallVectorTemplateBase.21" = type { %"class.llvm::SmallVectorTemplateCommon.22" }
%"class.llvm::SmallVectorTemplateCommon.22" = type { %"class.llvm::SmallVectorBase" }
%"struct.llvm::SmallVectorStorage.23" = type { [64 x i8] }

; Function Attrs: mustprogress nounwind uwtable
define linkonce_odr hidden noundef ptr @_ZNK4llvm25SmallVectorTemplateCommonIjvE10getFirstElEv(ptr noundef nonnull align 8 dereferenceable(16) %0) #1 comdat align 2 {
  %2 = alloca ptr, align 8
  store ptr %0, ptr %2, align 8
  %3 = load ptr, ptr %2, align 8
  %4 = getelementptr inbounds i8, ptr %3, i64 16
  ret ptr %4
}

; Function Attrs: mustprogress nounwind uwtable
define linkonce_odr hidden noundef zeroext i1 @_ZNK4llvm25SmallVectorTemplateCommonIjvE7isSmallEv(ptr noundef nonnull align 8 dereferenceable(16) %0) #1 comdat align 2 {
  %2 = alloca ptr, align 8
  store ptr %0, ptr %2, align 8
  %3 = load ptr, ptr %2, align 8
  %4 = getelementptr inbounds nuw %"class.llvm::SmallVectorBase", ptr %3, i32 0, i32 0
  %5 = load ptr, ptr %4, align 8
  %6 = call noundef ptr @_ZNK4llvm25SmallVectorTemplateCommonIjvE10getFirstElEv(ptr noundef nonnull align 8 dereferenceable(16) %3)
  %7 = icmp eq ptr %5, %6
  ret i1 %7
}

; Function Attrs: mustprogress nounwind uwtable
define linkonce_odr hidden void @_ZN4llvm15SmallVectorImplIjED2Ev(ptr noundef nonnull align 8 dereferenceable(16) %0) unnamed_addr #1 comdat align 2 {
  %2 = alloca ptr, align 8
  store ptr %0, ptr %2, align 8
  %3 = load ptr, ptr %2, align 8
  %4 = call noundef zeroext i1 @_ZNK4llvm25SmallVectorTemplateCommonIjvE7isSmallEv(ptr noundef nonnull align 8 dereferenceable(16) %3)
  br i1 %4, label %7, label %5

5:                                                ; preds = %1
  %6 = call noundef ptr @_ZN4llvm25SmallVectorTemplateCommonIjvE5beginEv(ptr noundef nonnull align 8 dereferenceable(16) %3)
  call void @free(ptr noundef %6) #2
  br label %7

7:                                                ; preds = %5, %1
  ret void
}

; Function Attrs: mustprogress nounwind uwtable
define linkonce_odr hidden void @_ZN4llvm23SmallVectorTemplateBaseIjLb1EE13destroy_rangeEPjS2_(ptr noundef %0, ptr noundef %1) #1 comdat align 2 {
  %3 = alloca ptr, align 8
  %4 = alloca ptr, align 8
  store ptr %0, ptr %3, align 8
  store ptr %1, ptr %4, align 8
  ret void
}

; Function Attrs: mustprogress nounwind uwtable
define linkonce_odr hidden noundef ptr @_ZN4llvm25SmallVectorTemplateCommonIjvE3endEv(ptr noundef nonnull align 8 dereferenceable(16) %0) #1 comdat align 2 {
  %2 = alloca ptr, align 8
  store ptr %0, ptr %2, align 8
  %3 = load ptr, ptr %2, align 8
  %4 = call noundef ptr @_ZN4llvm25SmallVectorTemplateCommonIjvE5beginEv(ptr noundef nonnull align 8 dereferenceable(16) %3)
  %5 = call noundef i64 @_ZNK4llvm15SmallVectorBaseIjE4sizeEv(ptr noundef nonnull align 8 dereferenceable(16) %3)
  %6 = getelementptr inbounds i32, ptr %4, i64 %5
  ret ptr %6
}

; Function Attrs: mustprogress nounwind uwtable
define linkonce_odr hidden noundef ptr @_ZN4llvm25SmallVectorTemplateCommonIjvE5beginEv(ptr noundef nonnull align 8 dereferenceable(16) %0) #1 comdat align 2 {
  %2 = alloca ptr, align 8
  store ptr %0, ptr %2, align 8
  %3 = load ptr, ptr %2, align 8
  %4 = getelementptr inbounds nuw %"class.llvm::SmallVectorBase", ptr %3, i32 0, i32 0
  %5 = load ptr, ptr %4, align 8
  ret ptr %5
}

; Function Attrs: mustprogress nounwind uwtable
define linkonce_odr hidden void @_ZN4llvm12FunctionPassD2Ev(ptr noundef nonnull align 8 dereferenceable(28) %0) unnamed_addr #1 comdat align 2 {
  %2 = alloca ptr, align 8
  store ptr %0, ptr %2, align 8
  %3 = load ptr, ptr %2, align 8
  call void @_ZN4llvm4PassD2Ev(ptr noundef nonnull align 8 dereferenceable(28) %3) #2
  ret void
}

; Function Attrs: mustprogress nounwind uwtable
define linkonce_odr hidden void @_ZN4llvm11SmallVectorIjLj16EED2Ev(ptr noundef nonnull align 8 dereferenceable(80) %0) unnamed_addr #1 comdat align 2 {
  %2 = alloca ptr, align 8
  store ptr %0, ptr %2, align 8
  %3 = load ptr, ptr %2, align 8
  %4 = call noundef ptr @_ZN4llvm25SmallVectorTemplateCommonIjvE5beginEv(ptr noundef nonnull align 8 dereferenceable(16) %3)
  %5 = call noundef ptr @_ZN4llvm25SmallVectorTemplateCommonIjvE3endEv(ptr noundef nonnull align 8 dereferenceable(16) %3)
  call void @_ZN4llvm23SmallVectorTemplateBaseIjLb1EE13destroy_rangeEPjS2_(ptr noundef %4, ptr noundef %5)
  call void @_ZN4llvm15SmallVectorImplIjED2Ev(ptr noundef nonnull align 8 dereferenceable(16) %3) #2
  ret void
}

; Function Attrs: mustprogress nounwind uwtable
define linkonce_odr hidden void @_ZN4llvm19MachineFunctionPassD2Ev(ptr noundef nonnull align 8 dereferenceable(56) %0) unnamed_addr #1 comdat align 2 {
  %2 = alloca ptr, align 8
  store ptr %0, ptr %2, align 8
  %3 = load ptr, ptr %2, align 8
  call void @_ZN4llvm12FunctionPassD2Ev(ptr noundef nonnull align 8 dereferenceable(28) %3) #2
  ret void
}

; Function Attrs: mustprogress nounwind uwtable
define linkonce_odr hidden void @_ZN4llvm16TargetSchedModelD2Ev(ptr noundef nonnull align 8 dereferenceable(280) %0) unnamed_addr #1 comdat align 2 {
  %2 = alloca ptr, align 8
  store ptr %0, ptr %2, align 8
  %3 = load ptr, ptr %2, align 8
  %4 = getelementptr inbounds nuw %"class.llvm::TargetSchedModel", ptr %3, i32 0, i32 4
  call void @_ZN4llvm11SmallVectorIjLj16EED2Ev(ptr noundef nonnull align 8 dereferenceable(80) %4) #2
  ret void
}

; Function Attrs: mustprogress nounwind uwtable
define internal void @_ZN12_GLOBAL__N_120X86CmovConverterPassD2Ev(ptr noundef nonnull align 8 dereferenceable(368) %0) unnamed_addr #1 align 2 {
  %2 = alloca ptr, align 8
  store ptr %0, ptr %2, align 8
  %3 = load ptr, ptr %2, align 8
  store ptr getelementptr inbounds inrange(-16, 176) ({ [24 x ptr] }, ptr @_ZTVN12_GLOBAL__N_120X86CmovConverterPassE, i32 0, i32 0, i32 2), ptr %3, align 8
  %4 = getelementptr inbounds nuw %"class.(anonymous namespace)::X86CmovConverterPass", ptr %3, i32 0, i32 5
  call void @_ZN4llvm16TargetSchedModelD2Ev(ptr noundef nonnull align 8 dereferenceable(280) %4) #2
  call void @_ZN4llvm19MachineFunctionPassD2Ev(ptr noundef nonnull align 8 dereferenceable(56) %3) #2
  ret void
}

; Function Attrs: mustprogress nounwind uwtable
define internal void @_ZN12_GLOBAL__N_120X86CmovConverterPassD0Ev(ptr noundef nonnull align 8 dereferenceable(368) %0) unnamed_addr #1 align 2 {
  %2 = alloca ptr, align 8
  store ptr %0, ptr %2, align 8
  %3 = load ptr, ptr %2, align 8
  call void @_ZN12_GLOBAL__N_120X86CmovConverterPassD2Ev(ptr noundef nonnull align 8 dereferenceable(368) %3) #2
  call void @_ZdlPvm(ptr noundef %3, i64 noundef 368) #12
  ret void
}